
;CodeVisionAVR C Compiler V3.12 Advanced
;(C) Copyright 1998-2014 Pavel Haiduc, HP InfoTech s.r.l.
;http://www.hpinfotech.com

;Build configuration    : Debug
;Chip type              : ATmega16
;Program type           : Application
;Clock frequency        : 8.000000 MHz
;Memory model           : Small
;Optimize for           : Size
;(s)printf features     : int, width
;(s)scanf features      : int, width
;External RAM size      : 0
;Data Stack size        : 256 byte(s)
;Heap size              : 0 byte(s)
;Promote 'char' to 'int': Yes
;'char' is unsigned     : Yes
;8 bit enums            : Yes
;Global 'const' stored in FLASH: No
;Enhanced function parameter passing: Yes
;Enhanced core instructions: On
;Automatic register allocation for global variables: On
;Smart register allocation: On

	#define _MODEL_SMALL_

	#pragma AVRPART ADMIN PART_NAME ATmega16
	#pragma AVRPART MEMORY PROG_FLASH 16384
	#pragma AVRPART MEMORY EEPROM 512
	#pragma AVRPART MEMORY INT_SRAM SIZE 1024
	#pragma AVRPART MEMORY INT_SRAM START_ADDR 0x60

	#define CALL_SUPPORTED 1

	.LISTMAC
	.EQU UDRE=0x5
	.EQU RXC=0x7
	.EQU USR=0xB
	.EQU UDR=0xC
	.EQU SPSR=0xE
	.EQU SPDR=0xF
	.EQU EERE=0x0
	.EQU EEWE=0x1
	.EQU EEMWE=0x2
	.EQU EECR=0x1C
	.EQU EEDR=0x1D
	.EQU EEARL=0x1E
	.EQU EEARH=0x1F
	.EQU WDTCR=0x21
	.EQU MCUCR=0x35
	.EQU GICR=0x3B
	.EQU SPL=0x3D
	.EQU SPH=0x3E
	.EQU SREG=0x3F

	.DEF R0X0=R0
	.DEF R0X1=R1
	.DEF R0X2=R2
	.DEF R0X3=R3
	.DEF R0X4=R4
	.DEF R0X5=R5
	.DEF R0X6=R6
	.DEF R0X7=R7
	.DEF R0X8=R8
	.DEF R0X9=R9
	.DEF R0XA=R10
	.DEF R0XB=R11
	.DEF R0XC=R12
	.DEF R0XD=R13
	.DEF R0XE=R14
	.DEF R0XF=R15
	.DEF R0X10=R16
	.DEF R0X11=R17
	.DEF R0X12=R18
	.DEF R0X13=R19
	.DEF R0X14=R20
	.DEF R0X15=R21
	.DEF R0X16=R22
	.DEF R0X17=R23
	.DEF R0X18=R24
	.DEF R0X19=R25
	.DEF R0X1A=R26
	.DEF R0X1B=R27
	.DEF R0X1C=R28
	.DEF R0X1D=R29
	.DEF R0X1E=R30
	.DEF R0X1F=R31

	.EQU __SRAM_START=0x0060
	.EQU __SRAM_END=0x045F
	.EQU __DSTACK_SIZE=0x0100
	.EQU __HEAP_SIZE=0x0000
	.EQU __CLEAR_SRAM_SIZE=__SRAM_END-__SRAM_START+1

	.MACRO __CPD1N
	CPI  R30,LOW(@0)
	LDI  R26,HIGH(@0)
	CPC  R31,R26
	LDI  R26,BYTE3(@0)
	CPC  R22,R26
	LDI  R26,BYTE4(@0)
	CPC  R23,R26
	.ENDM

	.MACRO __CPD2N
	CPI  R26,LOW(@0)
	LDI  R30,HIGH(@0)
	CPC  R27,R30
	LDI  R30,BYTE3(@0)
	CPC  R24,R30
	LDI  R30,BYTE4(@0)
	CPC  R25,R30
	.ENDM

	.MACRO __CPWRR
	CP   R@0,R@2
	CPC  R@1,R@3
	.ENDM

	.MACRO __CPWRN
	CPI  R@0,LOW(@2)
	LDI  R30,HIGH(@2)
	CPC  R@1,R30
	.ENDM

	.MACRO __ADDB1MN
	SUBI R30,LOW(-@0-(@1))
	.ENDM

	.MACRO __ADDB2MN
	SUBI R26,LOW(-@0-(@1))
	.ENDM

	.MACRO __ADDW1MN
	SUBI R30,LOW(-@0-(@1))
	SBCI R31,HIGH(-@0-(@1))
	.ENDM

	.MACRO __ADDW2MN
	SUBI R26,LOW(-@0-(@1))
	SBCI R27,HIGH(-@0-(@1))
	.ENDM

	.MACRO __ADDW1FN
	SUBI R30,LOW(-2*@0-(@1))
	SBCI R31,HIGH(-2*@0-(@1))
	.ENDM

	.MACRO __ADDD1FN
	SUBI R30,LOW(-2*@0-(@1))
	SBCI R31,HIGH(-2*@0-(@1))
	SBCI R22,BYTE3(-2*@0-(@1))
	.ENDM

	.MACRO __ADDD1N
	SUBI R30,LOW(-@0)
	SBCI R31,HIGH(-@0)
	SBCI R22,BYTE3(-@0)
	SBCI R23,BYTE4(-@0)
	.ENDM

	.MACRO __ADDD2N
	SUBI R26,LOW(-@0)
	SBCI R27,HIGH(-@0)
	SBCI R24,BYTE3(-@0)
	SBCI R25,BYTE4(-@0)
	.ENDM

	.MACRO __SUBD1N
	SUBI R30,LOW(@0)
	SBCI R31,HIGH(@0)
	SBCI R22,BYTE3(@0)
	SBCI R23,BYTE4(@0)
	.ENDM

	.MACRO __SUBD2N
	SUBI R26,LOW(@0)
	SBCI R27,HIGH(@0)
	SBCI R24,BYTE3(@0)
	SBCI R25,BYTE4(@0)
	.ENDM

	.MACRO __ANDBMNN
	LDS  R30,@0+(@1)
	ANDI R30,LOW(@2)
	STS  @0+(@1),R30
	.ENDM

	.MACRO __ANDWMNN
	LDS  R30,@0+(@1)
	ANDI R30,LOW(@2)
	STS  @0+(@1),R30
	LDS  R30,@0+(@1)+1
	ANDI R30,HIGH(@2)
	STS  @0+(@1)+1,R30
	.ENDM

	.MACRO __ANDD1N
	ANDI R30,LOW(@0)
	ANDI R31,HIGH(@0)
	ANDI R22,BYTE3(@0)
	ANDI R23,BYTE4(@0)
	.ENDM

	.MACRO __ANDD2N
	ANDI R26,LOW(@0)
	ANDI R27,HIGH(@0)
	ANDI R24,BYTE3(@0)
	ANDI R25,BYTE4(@0)
	.ENDM

	.MACRO __ORBMNN
	LDS  R30,@0+(@1)
	ORI  R30,LOW(@2)
	STS  @0+(@1),R30
	.ENDM

	.MACRO __ORWMNN
	LDS  R30,@0+(@1)
	ORI  R30,LOW(@2)
	STS  @0+(@1),R30
	LDS  R30,@0+(@1)+1
	ORI  R30,HIGH(@2)
	STS  @0+(@1)+1,R30
	.ENDM

	.MACRO __ORD1N
	ORI  R30,LOW(@0)
	ORI  R31,HIGH(@0)
	ORI  R22,BYTE3(@0)
	ORI  R23,BYTE4(@0)
	.ENDM

	.MACRO __ORD2N
	ORI  R26,LOW(@0)
	ORI  R27,HIGH(@0)
	ORI  R24,BYTE3(@0)
	ORI  R25,BYTE4(@0)
	.ENDM

	.MACRO __DELAY_USB
	LDI  R24,LOW(@0)
__DELAY_USB_LOOP:
	DEC  R24
	BRNE __DELAY_USB_LOOP
	.ENDM

	.MACRO __DELAY_USW
	LDI  R24,LOW(@0)
	LDI  R25,HIGH(@0)
__DELAY_USW_LOOP:
	SBIW R24,1
	BRNE __DELAY_USW_LOOP
	.ENDM

	.MACRO __GETD1S
	LDD  R30,Y+@0
	LDD  R31,Y+@0+1
	LDD  R22,Y+@0+2
	LDD  R23,Y+@0+3
	.ENDM

	.MACRO __GETD2S
	LDD  R26,Y+@0
	LDD  R27,Y+@0+1
	LDD  R24,Y+@0+2
	LDD  R25,Y+@0+3
	.ENDM

	.MACRO __PUTD1S
	STD  Y+@0,R30
	STD  Y+@0+1,R31
	STD  Y+@0+2,R22
	STD  Y+@0+3,R23
	.ENDM

	.MACRO __PUTD2S
	STD  Y+@0,R26
	STD  Y+@0+1,R27
	STD  Y+@0+2,R24
	STD  Y+@0+3,R25
	.ENDM

	.MACRO __PUTDZ2
	STD  Z+@0,R26
	STD  Z+@0+1,R27
	STD  Z+@0+2,R24
	STD  Z+@0+3,R25
	.ENDM

	.MACRO __CLRD1S
	STD  Y+@0,R30
	STD  Y+@0+1,R30
	STD  Y+@0+2,R30
	STD  Y+@0+3,R30
	.ENDM

	.MACRO __POINTB1MN
	LDI  R30,LOW(@0+(@1))
	.ENDM

	.MACRO __POINTW1MN
	LDI  R30,LOW(@0+(@1))
	LDI  R31,HIGH(@0+(@1))
	.ENDM

	.MACRO __POINTD1M
	LDI  R30,LOW(@0)
	LDI  R31,HIGH(@0)
	LDI  R22,BYTE3(@0)
	LDI  R23,BYTE4(@0)
	.ENDM

	.MACRO __POINTW1FN
	LDI  R30,LOW(2*@0+(@1))
	LDI  R31,HIGH(2*@0+(@1))
	.ENDM

	.MACRO __POINTD1FN
	LDI  R30,LOW(2*@0+(@1))
	LDI  R31,HIGH(2*@0+(@1))
	LDI  R22,BYTE3(2*@0+(@1))
	LDI  R23,BYTE4(2*@0+(@1))
	.ENDM

	.MACRO __POINTB2MN
	LDI  R26,LOW(@0+(@1))
	.ENDM

	.MACRO __POINTW2MN
	LDI  R26,LOW(@0+(@1))
	LDI  R27,HIGH(@0+(@1))
	.ENDM

	.MACRO __POINTW2FN
	LDI  R26,LOW(2*@0+(@1))
	LDI  R27,HIGH(2*@0+(@1))
	.ENDM

	.MACRO __POINTD2FN
	LDI  R26,LOW(2*@0+(@1))
	LDI  R27,HIGH(2*@0+(@1))
	LDI  R24,BYTE3(2*@0+(@1))
	LDI  R25,BYTE4(2*@0+(@1))
	.ENDM

	.MACRO __POINTBRM
	LDI  R@0,LOW(@1)
	.ENDM

	.MACRO __POINTWRM
	LDI  R@0,LOW(@2)
	LDI  R@1,HIGH(@2)
	.ENDM

	.MACRO __POINTBRMN
	LDI  R@0,LOW(@1+(@2))
	.ENDM

	.MACRO __POINTWRMN
	LDI  R@0,LOW(@2+(@3))
	LDI  R@1,HIGH(@2+(@3))
	.ENDM

	.MACRO __POINTWRFN
	LDI  R@0,LOW(@2*2+(@3))
	LDI  R@1,HIGH(@2*2+(@3))
	.ENDM

	.MACRO __GETD1N
	LDI  R30,LOW(@0)
	LDI  R31,HIGH(@0)
	LDI  R22,BYTE3(@0)
	LDI  R23,BYTE4(@0)
	.ENDM

	.MACRO __GETD2N
	LDI  R26,LOW(@0)
	LDI  R27,HIGH(@0)
	LDI  R24,BYTE3(@0)
	LDI  R25,BYTE4(@0)
	.ENDM

	.MACRO __GETB1MN
	LDS  R30,@0+(@1)
	.ENDM

	.MACRO __GETB1HMN
	LDS  R31,@0+(@1)
	.ENDM

	.MACRO __GETW1MN
	LDS  R30,@0+(@1)
	LDS  R31,@0+(@1)+1
	.ENDM

	.MACRO __GETD1MN
	LDS  R30,@0+(@1)
	LDS  R31,@0+(@1)+1
	LDS  R22,@0+(@1)+2
	LDS  R23,@0+(@1)+3
	.ENDM

	.MACRO __GETBRMN
	LDS  R@0,@1+(@2)
	.ENDM

	.MACRO __GETWRMN
	LDS  R@0,@2+(@3)
	LDS  R@1,@2+(@3)+1
	.ENDM

	.MACRO __GETWRZ
	LDD  R@0,Z+@2
	LDD  R@1,Z+@2+1
	.ENDM

	.MACRO __GETD2Z
	LDD  R26,Z+@0
	LDD  R27,Z+@0+1
	LDD  R24,Z+@0+2
	LDD  R25,Z+@0+3
	.ENDM

	.MACRO __GETB2MN
	LDS  R26,@0+(@1)
	.ENDM

	.MACRO __GETW2MN
	LDS  R26,@0+(@1)
	LDS  R27,@0+(@1)+1
	.ENDM

	.MACRO __GETD2MN
	LDS  R26,@0+(@1)
	LDS  R27,@0+(@1)+1
	LDS  R24,@0+(@1)+2
	LDS  R25,@0+(@1)+3
	.ENDM

	.MACRO __PUTB1MN
	STS  @0+(@1),R30
	.ENDM

	.MACRO __PUTW1MN
	STS  @0+(@1),R30
	STS  @0+(@1)+1,R31
	.ENDM

	.MACRO __PUTD1MN
	STS  @0+(@1),R30
	STS  @0+(@1)+1,R31
	STS  @0+(@1)+2,R22
	STS  @0+(@1)+3,R23
	.ENDM

	.MACRO __PUTB1EN
	LDI  R26,LOW(@0+(@1))
	LDI  R27,HIGH(@0+(@1))
	CALL __EEPROMWRB
	.ENDM

	.MACRO __PUTW1EN
	LDI  R26,LOW(@0+(@1))
	LDI  R27,HIGH(@0+(@1))
	CALL __EEPROMWRW
	.ENDM

	.MACRO __PUTD1EN
	LDI  R26,LOW(@0+(@1))
	LDI  R27,HIGH(@0+(@1))
	CALL __EEPROMWRD
	.ENDM

	.MACRO __PUTBR0MN
	STS  @0+(@1),R0
	.ENDM

	.MACRO __PUTBMRN
	STS  @0+(@1),R@2
	.ENDM

	.MACRO __PUTWMRN
	STS  @0+(@1),R@2
	STS  @0+(@1)+1,R@3
	.ENDM

	.MACRO __PUTBZR
	STD  Z+@1,R@0
	.ENDM

	.MACRO __PUTWZR
	STD  Z+@2,R@0
	STD  Z+@2+1,R@1
	.ENDM

	.MACRO __GETW1R
	MOV  R30,R@0
	MOV  R31,R@1
	.ENDM

	.MACRO __GETW2R
	MOV  R26,R@0
	MOV  R27,R@1
	.ENDM

	.MACRO __GETWRN
	LDI  R@0,LOW(@2)
	LDI  R@1,HIGH(@2)
	.ENDM

	.MACRO __PUTW1R
	MOV  R@0,R30
	MOV  R@1,R31
	.ENDM

	.MACRO __PUTW2R
	MOV  R@0,R26
	MOV  R@1,R27
	.ENDM

	.MACRO __ADDWRN
	SUBI R@0,LOW(-@2)
	SBCI R@1,HIGH(-@2)
	.ENDM

	.MACRO __ADDWRR
	ADD  R@0,R@2
	ADC  R@1,R@3
	.ENDM

	.MACRO __SUBWRN
	SUBI R@0,LOW(@2)
	SBCI R@1,HIGH(@2)
	.ENDM

	.MACRO __SUBWRR
	SUB  R@0,R@2
	SBC  R@1,R@3
	.ENDM

	.MACRO __ANDWRN
	ANDI R@0,LOW(@2)
	ANDI R@1,HIGH(@2)
	.ENDM

	.MACRO __ANDWRR
	AND  R@0,R@2
	AND  R@1,R@3
	.ENDM

	.MACRO __ORWRN
	ORI  R@0,LOW(@2)
	ORI  R@1,HIGH(@2)
	.ENDM

	.MACRO __ORWRR
	OR   R@0,R@2
	OR   R@1,R@3
	.ENDM

	.MACRO __EORWRR
	EOR  R@0,R@2
	EOR  R@1,R@3
	.ENDM

	.MACRO __GETWRS
	LDD  R@0,Y+@2
	LDD  R@1,Y+@2+1
	.ENDM

	.MACRO __PUTBSR
	STD  Y+@1,R@0
	.ENDM

	.MACRO __PUTWSR
	STD  Y+@2,R@0
	STD  Y+@2+1,R@1
	.ENDM

	.MACRO __MOVEWRR
	MOV  R@0,R@2
	MOV  R@1,R@3
	.ENDM

	.MACRO __INWR
	IN   R@0,@2
	IN   R@1,@2+1
	.ENDM

	.MACRO __OUTWR
	OUT  @2+1,R@1
	OUT  @2,R@0
	.ENDM

	.MACRO __CALL1MN
	LDS  R30,@0+(@1)
	LDS  R31,@0+(@1)+1
	ICALL
	.ENDM

	.MACRO __CALL1FN
	LDI  R30,LOW(2*@0+(@1))
	LDI  R31,HIGH(2*@0+(@1))
	CALL __GETW1PF
	ICALL
	.ENDM

	.MACRO __CALL2EN
	PUSH R26
	PUSH R27
	LDI  R26,LOW(@0+(@1))
	LDI  R27,HIGH(@0+(@1))
	CALL __EEPROMRDW
	POP  R27
	POP  R26
	ICALL
	.ENDM

	.MACRO __CALL2EX
	SUBI R26,LOW(-@0)
	SBCI R27,HIGH(-@0)
	CALL __EEPROMRDD
	ICALL
	.ENDM

	.MACRO __GETW1STACK
	IN   R30,SPL
	IN   R31,SPH
	ADIW R30,@0+1
	LD   R0,Z+
	LD   R31,Z
	MOV  R30,R0
	.ENDM

	.MACRO __GETD1STACK
	IN   R30,SPL
	IN   R31,SPH
	ADIW R30,@0+1
	LD   R0,Z+
	LD   R1,Z+
	LD   R22,Z
	MOVW R30,R0
	.ENDM

	.MACRO __NBST
	BST  R@0,@1
	IN   R30,SREG
	LDI  R31,0x40
	EOR  R30,R31
	OUT  SREG,R30
	.ENDM


	.MACRO __PUTB1SN
	LDD  R26,Y+@0
	LDD  R27,Y+@0+1
	SUBI R26,LOW(-@1)
	SBCI R27,HIGH(-@1)
	ST   X,R30
	.ENDM

	.MACRO __PUTW1SN
	LDD  R26,Y+@0
	LDD  R27,Y+@0+1
	SUBI R26,LOW(-@1)
	SBCI R27,HIGH(-@1)
	ST   X+,R30
	ST   X,R31
	.ENDM

	.MACRO __PUTD1SN
	LDD  R26,Y+@0
	LDD  R27,Y+@0+1
	SUBI R26,LOW(-@1)
	SBCI R27,HIGH(-@1)
	CALL __PUTDP1
	.ENDM

	.MACRO __PUTB1SNS
	LDD  R26,Y+@0
	LDD  R27,Y+@0+1
	ADIW R26,@1
	ST   X,R30
	.ENDM

	.MACRO __PUTW1SNS
	LDD  R26,Y+@0
	LDD  R27,Y+@0+1
	ADIW R26,@1
	ST   X+,R30
	ST   X,R31
	.ENDM

	.MACRO __PUTD1SNS
	LDD  R26,Y+@0
	LDD  R27,Y+@0+1
	ADIW R26,@1
	CALL __PUTDP1
	.ENDM

	.MACRO __PUTB1PMN
	LDS  R26,@0
	LDS  R27,@0+1
	SUBI R26,LOW(-@1)
	SBCI R27,HIGH(-@1)
	ST   X,R30
	.ENDM

	.MACRO __PUTW1PMN
	LDS  R26,@0
	LDS  R27,@0+1
	SUBI R26,LOW(-@1)
	SBCI R27,HIGH(-@1)
	ST   X+,R30
	ST   X,R31
	.ENDM

	.MACRO __PUTD1PMN
	LDS  R26,@0
	LDS  R27,@0+1
	SUBI R26,LOW(-@1)
	SBCI R27,HIGH(-@1)
	CALL __PUTDP1
	.ENDM

	.MACRO __PUTB1PMNS
	LDS  R26,@0
	LDS  R27,@0+1
	ADIW R26,@1
	ST   X,R30
	.ENDM

	.MACRO __PUTW1PMNS
	LDS  R26,@0
	LDS  R27,@0+1
	ADIW R26,@1
	ST   X+,R30
	ST   X,R31
	.ENDM

	.MACRO __PUTD1PMNS
	LDS  R26,@0
	LDS  R27,@0+1
	ADIW R26,@1
	CALL __PUTDP1
	.ENDM

	.MACRO __PUTB1RN
	MOVW R26,R@0
	SUBI R26,LOW(-@1)
	SBCI R27,HIGH(-@1)
	ST   X,R30
	.ENDM

	.MACRO __PUTW1RN
	MOVW R26,R@0
	SUBI R26,LOW(-@1)
	SBCI R27,HIGH(-@1)
	ST   X+,R30
	ST   X,R31
	.ENDM

	.MACRO __PUTD1RN
	MOVW R26,R@0
	SUBI R26,LOW(-@1)
	SBCI R27,HIGH(-@1)
	CALL __PUTDP1
	.ENDM

	.MACRO __PUTB1RNS
	MOVW R26,R@0
	ADIW R26,@1
	ST   X,R30
	.ENDM

	.MACRO __PUTW1RNS
	MOVW R26,R@0
	ADIW R26,@1
	ST   X+,R30
	ST   X,R31
	.ENDM

	.MACRO __PUTD1RNS
	MOVW R26,R@0
	ADIW R26,@1
	CALL __PUTDP1
	.ENDM

	.MACRO __PUTB1RON
	MOV  R26,R@0
	MOV  R27,R@1
	SUBI R26,LOW(-@2)
	SBCI R27,HIGH(-@2)
	ST   X,R30
	.ENDM

	.MACRO __PUTW1RON
	MOV  R26,R@0
	MOV  R27,R@1
	SUBI R26,LOW(-@2)
	SBCI R27,HIGH(-@2)
	ST   X+,R30
	ST   X,R31
	.ENDM

	.MACRO __PUTD1RON
	MOV  R26,R@0
	MOV  R27,R@1
	SUBI R26,LOW(-@2)
	SBCI R27,HIGH(-@2)
	CALL __PUTDP1
	.ENDM

	.MACRO __PUTB1RONS
	MOV  R26,R@0
	MOV  R27,R@1
	ADIW R26,@2
	ST   X,R30
	.ENDM

	.MACRO __PUTW1RONS
	MOV  R26,R@0
	MOV  R27,R@1
	ADIW R26,@2
	ST   X+,R30
	ST   X,R31
	.ENDM

	.MACRO __PUTD1RONS
	MOV  R26,R@0
	MOV  R27,R@1
	ADIW R26,@2
	CALL __PUTDP1
	.ENDM


	.MACRO __GETB1SX
	MOVW R30,R28
	SUBI R30,LOW(-@0)
	SBCI R31,HIGH(-@0)
	LD   R30,Z
	.ENDM

	.MACRO __GETB1HSX
	MOVW R30,R28
	SUBI R30,LOW(-@0)
	SBCI R31,HIGH(-@0)
	LD   R31,Z
	.ENDM

	.MACRO __GETW1SX
	MOVW R30,R28
	SUBI R30,LOW(-@0)
	SBCI R31,HIGH(-@0)
	LD   R0,Z+
	LD   R31,Z
	MOV  R30,R0
	.ENDM

	.MACRO __GETD1SX
	MOVW R30,R28
	SUBI R30,LOW(-@0)
	SBCI R31,HIGH(-@0)
	LD   R0,Z+
	LD   R1,Z+
	LD   R22,Z+
	LD   R23,Z
	MOVW R30,R0
	.ENDM

	.MACRO __GETB2SX
	MOVW R26,R28
	SUBI R26,LOW(-@0)
	SBCI R27,HIGH(-@0)
	LD   R26,X
	.ENDM

	.MACRO __GETW2SX
	MOVW R26,R28
	SUBI R26,LOW(-@0)
	SBCI R27,HIGH(-@0)
	LD   R0,X+
	LD   R27,X
	MOV  R26,R0
	.ENDM

	.MACRO __GETD2SX
	MOVW R26,R28
	SUBI R26,LOW(-@0)
	SBCI R27,HIGH(-@0)
	LD   R0,X+
	LD   R1,X+
	LD   R24,X+
	LD   R25,X
	MOVW R26,R0
	.ENDM

	.MACRO __GETBRSX
	MOVW R30,R28
	SUBI R30,LOW(-@1)
	SBCI R31,HIGH(-@1)
	LD   R@0,Z
	.ENDM

	.MACRO __GETWRSX
	MOVW R30,R28
	SUBI R30,LOW(-@2)
	SBCI R31,HIGH(-@2)
	LD   R@0,Z+
	LD   R@1,Z
	.ENDM

	.MACRO __GETBRSX2
	MOVW R26,R28
	SUBI R26,LOW(-@1)
	SBCI R27,HIGH(-@1)
	LD   R@0,X
	.ENDM

	.MACRO __GETWRSX2
	MOVW R26,R28
	SUBI R26,LOW(-@2)
	SBCI R27,HIGH(-@2)
	LD   R@0,X+
	LD   R@1,X
	.ENDM

	.MACRO __LSLW8SX
	MOVW R30,R28
	SUBI R30,LOW(-@0)
	SBCI R31,HIGH(-@0)
	LD   R31,Z
	CLR  R30
	.ENDM

	.MACRO __PUTB1SX
	MOVW R26,R28
	SUBI R26,LOW(-@0)
	SBCI R27,HIGH(-@0)
	ST   X,R30
	.ENDM

	.MACRO __PUTW1SX
	MOVW R26,R28
	SUBI R26,LOW(-@0)
	SBCI R27,HIGH(-@0)
	ST   X+,R30
	ST   X,R31
	.ENDM

	.MACRO __PUTD1SX
	MOVW R26,R28
	SUBI R26,LOW(-@0)
	SBCI R27,HIGH(-@0)
	ST   X+,R30
	ST   X+,R31
	ST   X+,R22
	ST   X,R23
	.ENDM

	.MACRO __CLRW1SX
	MOVW R26,R28
	SUBI R26,LOW(-@0)
	SBCI R27,HIGH(-@0)
	ST   X+,R30
	ST   X,R30
	.ENDM

	.MACRO __CLRD1SX
	MOVW R26,R28
	SUBI R26,LOW(-@0)
	SBCI R27,HIGH(-@0)
	ST   X+,R30
	ST   X+,R30
	ST   X+,R30
	ST   X,R30
	.ENDM

	.MACRO __PUTB2SX
	MOVW R30,R28
	SUBI R30,LOW(-@0)
	SBCI R31,HIGH(-@0)
	ST   Z,R26
	.ENDM

	.MACRO __PUTW2SX
	MOVW R30,R28
	SUBI R30,LOW(-@0)
	SBCI R31,HIGH(-@0)
	ST   Z+,R26
	ST   Z,R27
	.ENDM

	.MACRO __PUTD2SX
	MOVW R30,R28
	SUBI R30,LOW(-@0)
	SBCI R31,HIGH(-@0)
	ST   Z+,R26
	ST   Z+,R27
	ST   Z+,R24
	ST   Z,R25
	.ENDM

	.MACRO __PUTBSRX
	MOVW R30,R28
	SUBI R30,LOW(-@1)
	SBCI R31,HIGH(-@1)
	ST   Z,R@0
	.ENDM

	.MACRO __PUTWSRX
	MOVW R30,R28
	SUBI R30,LOW(-@2)
	SBCI R31,HIGH(-@2)
	ST   Z+,R@0
	ST   Z,R@1
	.ENDM

	.MACRO __PUTB1SNX
	MOVW R26,R28
	SUBI R26,LOW(-@0)
	SBCI R27,HIGH(-@0)
	LD   R0,X+
	LD   R27,X
	MOV  R26,R0
	SUBI R26,LOW(-@1)
	SBCI R27,HIGH(-@1)
	ST   X,R30
	.ENDM

	.MACRO __PUTW1SNX
	MOVW R26,R28
	SUBI R26,LOW(-@0)
	SBCI R27,HIGH(-@0)
	LD   R0,X+
	LD   R27,X
	MOV  R26,R0
	SUBI R26,LOW(-@1)
	SBCI R27,HIGH(-@1)
	ST   X+,R30
	ST   X,R31
	.ENDM

	.MACRO __PUTD1SNX
	MOVW R26,R28
	SUBI R26,LOW(-@0)
	SBCI R27,HIGH(-@0)
	LD   R0,X+
	LD   R27,X
	MOV  R26,R0
	SUBI R26,LOW(-@1)
	SBCI R27,HIGH(-@1)
	ST   X+,R30
	ST   X+,R31
	ST   X+,R22
	ST   X,R23
	.ENDM

	.MACRO __MULBRR
	MULS R@0,R@1
	MOVW R30,R0
	.ENDM

	.MACRO __MULBRRU
	MUL  R@0,R@1
	MOVW R30,R0
	.ENDM

	.MACRO __MULBRR0
	MULS R@0,R@1
	.ENDM

	.MACRO __MULBRRU0
	MUL  R@0,R@1
	.ENDM

	.MACRO __MULBNWRU
	LDI  R26,@2
	MUL  R26,R@0
	MOVW R30,R0
	MUL  R26,R@1
	ADD  R31,R0
	.ENDM

;NAME DEFINITIONS FOR GLOBAL VARIABLES ALLOCATED TO REGISTERS
	.DEF _state=R4
	.DEF _state_msb=R5
	.DEF _dir=R6
	.DEF _dir_msb=R7
	.DEF _step_count=R8
	.DEF _step_count_msb=R9
	.DEF _speed=R10
	.DEF _speed_msb=R11
	.DEF _acc=R12
	.DEF _acc_msb=R13

	.CSEG
	.ORG 0x00

;START OF CODE MARKER
__START_OF_CODE:

;INTERRUPT VECTORS
	JMP  __RESET
	JMP  0x00
	JMP  0x00
	JMP  0x00
	JMP  0x00
	JMP  0x00
	JMP  0x00
	JMP  0x00
	JMP  0x00
	JMP  _timer0_ovf_isr
	JMP  0x00
	JMP  0x00
	JMP  0x00
	JMP  0x00
	JMP  0x00
	JMP  0x00
	JMP  0x00
	JMP  0x00
	JMP  0x00
	JMP  0x00
	JMP  0x00

;GLOBAL REGISTER VARIABLES INITIALIZATION
__REG_VARS:
	.DB  0xFF,0xFF,0x0,0x0
	.DB  0x0,0x0,0x0,0x0
	.DB  0x64,0x0

_0x3:
	.DB  0x9,0x0,0x8,0x0,0xA,0x0,0x2,0x0
	.DB  0x6,0x0,0x4,0x0,0x5,0x0,0x1
_0x4:
	.DB  0xAC,0x3
_0x5:
	.DB  0xE8,0x3
_0x0:
	.DB  0x53,0x70,0x65,0x65,0x64,0x3A,0x20,0x0
	.DB  0x20,0x52,0x50,0x53,0x0,0x41,0x63,0x63
	.DB  0x3A,0x20,0x20,0x0,0x20,0x73,0x74,0x70
	.DB  0x2F,0x73,0x0,0x4D,0x6F,0x74,0x6F,0x72
	.DB  0x3A,0x20,0x4F,0x46,0x46,0x0,0x4D,0x2E
	.DB  0x41,0x20,0x54,0x65,0x68,0x72,0x61,0x6E
	.DB  0x69,0x0
_0x2000003:
	.DB  0x80,0xC0
_0x2020060:
	.DB  0x1
_0x2020000:
	.DB  0x2D,0x4E,0x41,0x4E,0x0,0x49,0x4E,0x46
	.DB  0x0

__GLOBAL_INI_TBL:
	.DW  0x0A
	.DW  0x04
	.DW  __REG_VARS*2

	.DW  0x0F
	.DW  _STEPS
	.DW  _0x3*2

	.DW  0x08
	.DW  _0x6
	.DW  _0x0*2

	.DW  0x05
	.DW  _0x6+8
	.DW  _0x0*2+8

	.DW  0x07
	.DW  _0x6+13
	.DW  _0x0*2+13

	.DW  0x07
	.DW  _0x6+20
	.DW  _0x0*2+20

	.DW  0x0B
	.DW  _0x15
	.DW  _0x0*2+27

	.DW  0x0C
	.DW  _0x15+11
	.DW  _0x0*2+38

	.DW  0x0B
	.DW  _0x15+23
	.DW  _0x0*2+27

	.DW  0x0C
	.DW  _0x15+34
	.DW  _0x0*2+38

	.DW  0x02
	.DW  __base_y_G100
	.DW  _0x2000003*2

	.DW  0x01
	.DW  __seed_G101
	.DW  _0x2020060*2

_0xFFFFFFFF:
	.DW  0

#define __GLOBAL_INI_TBL_PRESENT 1

__RESET:
	CLI
	CLR  R30
	OUT  EECR,R30

;INTERRUPT VECTORS ARE PLACED
;AT THE START OF FLASH
	LDI  R31,1
	OUT  GICR,R31
	OUT  GICR,R30
	OUT  MCUCR,R30

;CLEAR R2-R14
	LDI  R24,(14-2)+1
	LDI  R26,2
	CLR  R27
__CLEAR_REG:
	ST   X+,R30
	DEC  R24
	BRNE __CLEAR_REG

;CLEAR SRAM
	LDI  R24,LOW(__CLEAR_SRAM_SIZE)
	LDI  R25,HIGH(__CLEAR_SRAM_SIZE)
	LDI  R26,__SRAM_START
__CLEAR_SRAM:
	ST   X+,R30
	SBIW R24,1
	BRNE __CLEAR_SRAM

;GLOBAL VARIABLES INITIALIZATION
	LDI  R30,LOW(__GLOBAL_INI_TBL*2)
	LDI  R31,HIGH(__GLOBAL_INI_TBL*2)
__GLOBAL_INI_NEXT:
	LPM  R24,Z+
	LPM  R25,Z+
	SBIW R24,0
	BREQ __GLOBAL_INI_END
	LPM  R26,Z+
	LPM  R27,Z+
	LPM  R0,Z+
	LPM  R1,Z+
	MOVW R22,R30
	MOVW R30,R0
__GLOBAL_INI_LOOP:
	LPM  R0,Z+
	ST   X+,R0
	SBIW R24,1
	BRNE __GLOBAL_INI_LOOP
	MOVW R30,R22
	RJMP __GLOBAL_INI_NEXT
__GLOBAL_INI_END:

;HARDWARE STACK POINTER INITIALIZATION
	LDI  R30,LOW(__SRAM_END-__HEAP_SIZE)
	OUT  SPL,R30
	LDI  R30,HIGH(__SRAM_END-__HEAP_SIZE)
	OUT  SPH,R30

;DATA STACK POINTER INITIALIZATION
	LDI  R28,LOW(__SRAM_START+__DSTACK_SIZE)
	LDI  R29,HIGH(__SRAM_START+__DSTACK_SIZE)

	JMP  _main

	.ESEG
	.ORG 0

	.DSEG
	.ORG 0x160

	.CSEG
;/*******************************************************
;This program was created by the
;CodeWizardAVR V3.12 Advanced
;Automatic Program Generator
;© Copyright 1998-2014 Pavel Haiduc, HP InfoTech s.r.l.
;http://www.hpinfotech.com
;
;Project :
;Version :
;Date    : 1/9/2021
;Author  :
;Company :
;Comments:
;
;
;Chip type               : ATmega16
;Program type            : Application
;AVR Core Clock frequency: 8.000000 MHz
;Memory model            : Small
;External RAM size       : 0
;Data Stack size         : 256
;*******************************************************/
;
;#asm
    .equ __lcd_port= 0x18; // LCD I/O Port: PORTB
; 0000 001A #endasm
;
;#include <mega16.h>
	#ifndef __SLEEP_DEFINED__
	#define __SLEEP_DEFINED__
	.EQU __se_bit=0x40
	.EQU __sm_mask=0xB0
	.EQU __sm_powerdown=0x20
	.EQU __sm_powersave=0x30
	.EQU __sm_standby=0xA0
	.EQU __sm_ext_standby=0xB0
	.EQU __sm_adc_noise_red=0x10
	.SET power_ctrl_reg=mcucr
	#endif
;#include <lcd.h>
;#include <stdlib.h>
;
;
;const short int STEPS[8] = {0b00001001,0b00001000,0b000001010,0b00000010,0b00000110,0b00000100,0b00000101,0b00000001};

	.DSEG
;const int MAX_SPEED=940;
;const int MAX_TIMER=1000;
;
;static int timer_counter = 0;
;short int state = -1;
;short int dir=0;
;
;unsigned int step_count =0;
;int speed=0;
;int acc=100;
;
;void print_speed_acc(){
; 0000 002D void print_speed_acc(){

	.CSEG
_print_speed_acc:
; .FSTART _print_speed_acc
; 0000 002E     char str_speed[10];
; 0000 002F     char str_acc[10];
; 0000 0030     ftoa(1000/(float)(MAX_TIMER-speed),2,str_speed);
	SBIW R28,20
;	str_speed -> Y+10
;	str_acc -> Y+0
	LDI  R30,LOW(1000)
	LDI  R31,HIGH(1000)
	SUB  R30,R10
	SBC  R31,R11
	CALL SUBOPT_0x0
	__GETD2N 0x447A0000
	CALL __DIVF21
	CALL __PUTPARD1
	LDI  R30,LOW(2)
	ST   -Y,R30
	MOVW R26,R28
	ADIW R26,15
	CALL _ftoa
; 0000 0031     itoa(acc,str_acc);
	ST   -Y,R13
	ST   -Y,R12
	MOVW R26,R28
	ADIW R26,2
	CALL _itoa
; 0000 0032     lcd_clear();
	CALL _lcd_clear
; 0000 0033     lcd_gotoxy(0,0);
	LDI  R30,LOW(0)
	ST   -Y,R30
	LDI  R26,LOW(0)
	CALL _lcd_gotoxy
; 0000 0034     lcd_puts("Speed: ");
	__POINTW2MN _0x6,0
	CALL _lcd_puts
; 0000 0035     lcd_puts(str_speed);
	MOVW R26,R28
	ADIW R26,10
	CALL _lcd_puts
; 0000 0036     lcd_puts(" RPS");
	__POINTW2MN _0x6,8
	CALL SUBOPT_0x1
; 0000 0037     lcd_gotoxy(0,1);
; 0000 0038     lcd_puts("Acc:  ");
	__POINTW2MN _0x6,13
	CALL _lcd_puts
; 0000 0039     lcd_puts(str_acc);
	MOVW R26,R28
	CALL _lcd_puts
; 0000 003A     lcd_puts(" stp/s");
	__POINTW2MN _0x6,20
	CALL _lcd_puts
; 0000 003B }
	ADIW R28,20
	RET
; .FEND

	.DSEG
_0x6:
	.BYTE 0x1B
;
;void timer_procedure(){
; 0000 003D void timer_procedure(){

	.CSEG
_timer_procedure:
; .FSTART _timer_procedure
; 0000 003E     if (!dir){ // STOP motor
	MOV  R0,R6
	OR   R0,R7
	BRNE _0x7
; 0000 003F         PORTA = 0;
	LDI  R30,LOW(0)
	RJMP _0x20A0005
; 0000 0040         return;
; 0000 0041     }
; 0000 0042     state += dir;
_0x7:
	__ADDWRR 4,5,6,7
; 0000 0043     if (state>=8 || state<0)
	LDI  R30,LOW(8)
	LDI  R31,HIGH(8)
	CP   R4,R30
	CPC  R5,R31
	BRGE _0x9
	CLR  R0
	CP   R4,R0
	CPC  R5,R0
	BRGE _0x8
_0x9:
; 0000 0044         state = dir==1?0:7;
	LDI  R30,LOW(1)
	LDI  R31,HIGH(1)
	CP   R30,R6
	CPC  R31,R7
	BRNE _0xB
	LDI  R30,LOW(0)
	LDI  R31,HIGH(0)
	RJMP _0xC
_0xB:
	LDI  R30,LOW(7)
	LDI  R31,HIGH(7)
_0xC:
	MOVW R4,R30
; 0000 0045     PORTA = STEPS[state];
_0x8:
	MOVW R30,R4
	LDI  R26,LOW(_STEPS)
	LDI  R27,HIGH(_STEPS)
	LSL  R30
	ROL  R31
	ADD  R26,R30
	ADC  R27,R31
	LD   R30,X
_0x20A0005:
	OUT  0x1B,R30
; 0000 0046 
; 0000 0047 }
	RET
; .FEND
;void timer_procedure_speed(){
; 0000 0048 void timer_procedure_speed(){
_timer_procedure_speed:
; .FSTART _timer_procedure_speed
; 0000 0049     if (!dir) {
	MOV  R0,R6
	OR   R0,R7
	BRNE _0xE
; 0000 004A         return;
	RET
; 0000 004B     }
; 0000 004C     if (speed<=0){
_0xE:
	CLR  R0
	CP   R0,R10
	CPC  R0,R11
	BRLT _0xF
; 0000 004D         speed = 0;
	CLR  R10
	CLR  R11
; 0000 004E         dir *= -1;
	MOVW R30,R6
	CALL SUBOPT_0x2
	MOVW R6,R30
; 0000 004F         acc *= -1;
	MOVW R30,R12
	CALL SUBOPT_0x2
	MOVW R12,R30
; 0000 0050     }
; 0000 0051     if (speed>=MAX_SPEED){
_0xF:
	LDI  R30,LOW(940)
	LDI  R31,HIGH(940)
	CP   R10,R30
	CPC  R11,R31
	BRLT _0x10
; 0000 0052         speed = MAX_SPEED;
	MOVW R10,R30
; 0000 0053         acc *= -1;
	MOVW R30,R12
	CALL SUBOPT_0x2
	MOVW R12,R30
; 0000 0054     }
; 0000 0055     speed += acc;
_0x10:
	__ADDWRR 10,11,12,13
; 0000 0056     print_speed_acc();
	RCALL _print_speed_acc
; 0000 0057 }
	RET
; .FEND
;
;interrupt [TIM0_OVF] void timer0_ovf_isr(void)
; 0000 005A {
_timer0_ovf_isr:
; .FSTART _timer0_ovf_isr
	ST   -Y,R0
	ST   -Y,R1
	ST   -Y,R15
	ST   -Y,R22
	ST   -Y,R23
	ST   -Y,R24
	ST   -Y,R25
	ST   -Y,R26
	ST   -Y,R27
	ST   -Y,R30
	ST   -Y,R31
	IN   R30,SREG
	ST   -Y,R30
; 0000 005B     TCNT0=0x83;
	LDI  R30,LOW(131)
	OUT  0x32,R30
; 0000 005C     timer_counter++;
	LDI  R26,LOW(_timer_counter_G000)
	LDI  R27,HIGH(_timer_counter_G000)
	LD   R30,X+
	LD   R31,X+
	ADIW R30,1
	ST   -X,R31
	ST   -X,R30
; 0000 005D     if (dir)
	MOV  R0,R6
	OR   R0,R7
	BREQ _0x11
; 0000 005E        step_count++;
	MOVW R30,R8
	ADIW R30,1
	MOVW R8,R30
; 0000 005F     else{
	RJMP _0x12
_0x11:
; 0000 0060         step_count=0;
	CLR  R8
	CLR  R9
; 0000 0061     }
_0x12:
; 0000 0062 
; 0000 0063 
; 0000 0064     if (step_count>=MAX_TIMER-speed){
	LDI  R30,LOW(1000)
	LDI  R31,HIGH(1000)
	SUB  R30,R10
	SBC  R31,R11
	CP   R8,R30
	CPC  R9,R31
	BRLO _0x13
; 0000 0065         timer_procedure();
	RCALL _timer_procedure
; 0000 0066         step_count = 0;
	CLR  R8
	CLR  R9
; 0000 0067     }
; 0000 0068     if (timer_counter>=MAX_TIMER) {
_0x13:
	LDS  R26,_timer_counter_G000
	LDS  R27,_timer_counter_G000+1
	CPI  R26,LOW(0x3E8)
	LDI  R30,HIGH(0x3E8)
	CPC  R27,R30
	BRLT _0x14
; 0000 0069         timer_procedure_speed();
	RCALL _timer_procedure_speed
; 0000 006A         timer_counter=0;
	LDI  R30,LOW(0)
	STS  _timer_counter_G000,R30
	STS  _timer_counter_G000+1,R30
; 0000 006B     }
; 0000 006C 
; 0000 006D }
_0x14:
	LD   R30,Y+
	OUT  SREG,R30
	LD   R31,Y+
	LD   R30,Y+
	LD   R27,Y+
	LD   R26,Y+
	LD   R25,Y+
	LD   R24,Y+
	LD   R23,Y+
	LD   R22,Y+
	LD   R15,Y+
	LD   R1,Y+
	LD   R0,Y+
	RETI
; .FEND
;
;void main(void)
; 0000 0070 {
_main:
; .FSTART _main
; 0000 0071 
; 0000 0072 char btn_hold = 0;
; 0000 0073 
; 0000 0074 DDRA=0x1F;
;	btn_hold -> R17
	LDI  R17,0
	LDI  R30,LOW(31)
	OUT  0x1A,R30
; 0000 0075 PORTA = 0x00;
	LDI  R30,LOW(0)
	OUT  0x1B,R30
; 0000 0076 DDRB=0xFF;
	LDI  R30,LOW(255)
	OUT  0x17,R30
; 0000 0077 DDRC=(0<<DDC7) | (0<<DDC6) | (0<<DDC5) | (0<<DDC4) | (0<<DDC3) | (0<<DDC2) | (0<<DDC1) | (0<<DDC0);
	LDI  R30,LOW(0)
	OUT  0x14,R30
; 0000 0078 DDRD=(0<<DDD7) | (0<<DDD6) | (0<<DDD5) | (0<<DDD4) | (0<<DDD3) | (0<<DDD2) | (0<<DDD1) | (0<<DDD0);
	OUT  0x11,R30
; 0000 0079 
; 0000 007A 
; 0000 007B // Timer/Counter 0 initialization
; 0000 007C // Clock source: System Clock
; 0000 007D // Clock value: 125.000 kHz
; 0000 007E // Mode: Normal top=0xFF
; 0000 007F // OC0 output: Disconnected
; 0000 0080 // Timer Period: 1 ms
; 0000 0081 TCCR0=(0<<WGM00) | (0<<COM01) | (0<<COM00) | (0<<WGM01) | (0<<CS02) | (1<<CS01) | (1<<CS00);
	LDI  R30,LOW(3)
	OUT  0x33,R30
; 0000 0082 TCNT0=0x83;
	LDI  R30,LOW(131)
	OUT  0x32,R30
; 0000 0083 OCR0=0x00;
	LDI  R30,LOW(0)
	OUT  0x3C,R30
; 0000 0084 
; 0000 0085 TIMSK=(0<<OCIE2) | (0<<TOIE2) | (0<<TICIE1) | (0<<OCIE1A) | (0<<OCIE1B) | (0<<TOIE1) | (0<<OCIE0) | (1<<TOIE0);
	LDI  R30,LOW(1)
	OUT  0x39,R30
; 0000 0086 
; 0000 0087 lcd_init(16);
	LDI  R26,LOW(16)
	CALL _lcd_init
; 0000 0088 
; 0000 0089 #asm("sei")
	sei
; 0000 008A 
; 0000 008B lcd_puts("Motor: OFF");
	__POINTW2MN _0x15,0
	CALL SUBOPT_0x1
; 0000 008C lcd_gotoxy(0,1);
; 0000 008D lcd_puts("M.A Tehrani");
	__POINTW2MN _0x15,11
	CALL _lcd_puts
; 0000 008E 
; 0000 008F while (1)
_0x16:
; 0000 0090   {
; 0000 0091       PORTA.4 = (dir==-1?0:1);
	LDI  R30,LOW(65535)
	LDI  R31,HIGH(65535)
	CP   R30,R6
	CPC  R31,R7
	BRNE _0x19
	LDI  R30,LOW(0)
	RJMP _0x1A
_0x19:
	LDI  R30,LOW(1)
_0x1A:
	CPI  R30,0
	BRNE _0x1C
	CBI  0x1B,4
	RJMP _0x1D
_0x1C:
	SBI  0x1B,4
_0x1D:
; 0000 0092 
; 0000 0093       if (!btn_hold&&!PINC.2){
	CPI  R17,0
	BRNE _0x1F
	SBIS 0x13,2
	RJMP _0x20
_0x1F:
	RJMP _0x1E
_0x20:
; 0000 0094         lcd_clear();
	CALL _lcd_clear
; 0000 0095         btn_hold = 1;
	LDI  R17,LOW(1)
; 0000 0096         TCNT0=0x83;
	LDI  R30,LOW(131)
	OUT  0x32,R30
; 0000 0097         timer_counter=0;
	LDI  R30,LOW(0)
	STS  _timer_counter_G000,R30
	STS  _timer_counter_G000+1,R30
; 0000 0098         if (!dir){
	MOV  R0,R6
	OR   R0,R7
	BRNE _0x21
; 0000 0099             speed=1;
	LDI  R30,LOW(1)
	LDI  R31,HIGH(1)
	MOVW R10,R30
; 0000 009A             dir=1;
	MOVW R6,R30
; 0000 009B         }
; 0000 009C         else {
	RJMP _0x22
_0x21:
; 0000 009D             dir=0;
	CLR  R6
	CLR  R7
; 0000 009E             lcd_puts("Motor: OFF");
	__POINTW2MN _0x15,23
	CALL SUBOPT_0x1
; 0000 009F             lcd_gotoxy(0,1);
; 0000 00A0             lcd_puts("M.A Tehrani");
	__POINTW2MN _0x15,34
	CALL _lcd_puts
; 0000 00A1         }
_0x22:
; 0000 00A2         //timer_counter=500;
; 0000 00A3         //TIMSK=0;
; 0000 00A4         //delay_ms(5);
; 0000 00A5         //PORTA = 0;
; 0000 00A6         //delay_ms(5);
; 0000 00A7         //TIMSK=1;
; 0000 00A8       } else if(PINC.2) {
	RJMP _0x23
_0x1E:
	SBIC 0x13,2
; 0000 00A9         btn_hold=0;
	LDI  R17,LOW(0)
; 0000 00AA       }
; 0000 00AB 
; 0000 00AC   }
_0x23:
	RJMP _0x16
; 0000 00AD }
_0x25:
	RJMP _0x25
; .FEND

	.DSEG
_0x15:
	.BYTE 0x2E
    .equ __lcd_direction=__lcd_port-1
    .equ __lcd_pin=__lcd_port-2
    .equ __lcd_rs=0
    .equ __lcd_rd=1
    .equ __lcd_enable=2
    .equ __lcd_busy_flag=7

	.DSEG

	.CSEG
__lcd_delay_G100:
; .FSTART __lcd_delay_G100
    ldi   r31,15
__lcd_delay0:
    dec   r31
    brne  __lcd_delay0
	RET
; .FEND
__lcd_ready:
; .FSTART __lcd_ready
    in    r26,__lcd_direction
    andi  r26,0xf                 ;set as input
    out   __lcd_direction,r26
    sbi   __lcd_port,__lcd_rd     ;RD=1
    cbi   __lcd_port,__lcd_rs     ;RS=0
__lcd_busy:
	RCALL __lcd_delay_G100
    sbi   __lcd_port,__lcd_enable ;EN=1
	RCALL __lcd_delay_G100
    in    r26,__lcd_pin
    cbi   __lcd_port,__lcd_enable ;EN=0
	RCALL __lcd_delay_G100
    sbi   __lcd_port,__lcd_enable ;EN=1
	RCALL __lcd_delay_G100
    cbi   __lcd_port,__lcd_enable ;EN=0
    sbrc  r26,__lcd_busy_flag
    rjmp  __lcd_busy
	RET
; .FEND
__lcd_write_nibble_G100:
; .FSTART __lcd_write_nibble_G100
    andi  r26,0xf0
    or    r26,r27
    out   __lcd_port,r26          ;write
    sbi   __lcd_port,__lcd_enable ;EN=1
	CALL __lcd_delay_G100
    cbi   __lcd_port,__lcd_enable ;EN=0
	CALL __lcd_delay_G100
	RET
; .FEND
__lcd_write_data:
; .FSTART __lcd_write_data
	ST   -Y,R26
    cbi  __lcd_port,__lcd_rd 	  ;RD=0
    in    r26,__lcd_direction
    ori   r26,0xf0 | (1<<__lcd_rs) | (1<<__lcd_rd) | (1<<__lcd_enable) ;set as output
    out   __lcd_direction,r26
    in    r27,__lcd_port
    andi  r27,0xf
    ld    r26,y
	RCALL __lcd_write_nibble_G100
    ld    r26,y
    swap  r26
	RCALL __lcd_write_nibble_G100
    sbi   __lcd_port,__lcd_rd     ;RD=1
	JMP  _0x20A0004
; .FEND
__lcd_read_nibble_G100:
; .FSTART __lcd_read_nibble_G100
    sbi   __lcd_port,__lcd_enable ;EN=1
	CALL __lcd_delay_G100
    in    r30,__lcd_pin           ;read
    cbi   __lcd_port,__lcd_enable ;EN=0
	CALL __lcd_delay_G100
    andi  r30,0xf0
	RET
; .FEND
_lcd_read_byte0_G100:
; .FSTART _lcd_read_byte0_G100
	CALL __lcd_delay_G100
	RCALL __lcd_read_nibble_G100
    mov   r26,r30
	RCALL __lcd_read_nibble_G100
    cbi   __lcd_port,__lcd_rd     ;RD=0
    swap  r30
    or    r30,r26
	RET
; .FEND
_lcd_gotoxy:
; .FSTART _lcd_gotoxy
	ST   -Y,R26
	CALL __lcd_ready
	LD   R30,Y
	LDI  R31,0
	SUBI R30,LOW(-__base_y_G100)
	SBCI R31,HIGH(-__base_y_G100)
	LD   R30,Z
	LDD  R26,Y+1
	ADD  R26,R30
	CALL __lcd_write_data
	LDD  R30,Y+1
	STS  __lcd_x,R30
	LD   R30,Y
	STS  __lcd_y,R30
	ADIW R28,2
	RET
; .FEND
_lcd_clear:
; .FSTART _lcd_clear
	CALL __lcd_ready
	LDI  R26,LOW(2)
	CALL __lcd_write_data
	CALL __lcd_ready
	LDI  R26,LOW(12)
	CALL __lcd_write_data
	CALL __lcd_ready
	LDI  R26,LOW(1)
	CALL __lcd_write_data
	LDI  R30,LOW(0)
	STS  __lcd_y,R30
	STS  __lcd_x,R30
	RET
; .FEND
_lcd_putchar:
; .FSTART _lcd_putchar
	ST   -Y,R26
    push r30
    push r31
    ld   r26,y
    set
    cpi  r26,10
    breq __lcd_putchar1
    clt
	LDS  R30,__lcd_maxx
	LDS  R26,__lcd_x
	CP   R26,R30
	BRLO _0x2000004
	__lcd_putchar1:
	LDS  R30,__lcd_y
	SUBI R30,-LOW(1)
	STS  __lcd_y,R30
	LDI  R30,LOW(0)
	ST   -Y,R30
	LDS  R26,__lcd_y
	RCALL _lcd_gotoxy
	brts __lcd_putchar0
_0x2000004:
	LDS  R30,__lcd_x
	SUBI R30,-LOW(1)
	STS  __lcd_x,R30
    rcall __lcd_ready
    sbi  __lcd_port,__lcd_rs ;RS=1
	LD   R26,Y
	CALL __lcd_write_data
__lcd_putchar0:
    pop  r31
    pop  r30
	JMP  _0x20A0004
; .FEND
_lcd_puts:
; .FSTART _lcd_puts
	ST   -Y,R27
	ST   -Y,R26
	ST   -Y,R17
_0x2000005:
	LDD  R26,Y+1
	LDD  R27,Y+1+1
	LD   R30,X+
	STD  Y+1,R26
	STD  Y+1+1,R27
	MOV  R17,R30
	CPI  R30,0
	BREQ _0x2000007
	MOV  R26,R17
	RCALL _lcd_putchar
	RJMP _0x2000005
_0x2000007:
	LDD  R17,Y+0
	ADIW R28,3
	RET
; .FEND
__long_delay_G100:
; .FSTART __long_delay_G100
    clr   r26
    clr   r27
__long_delay0:
    sbiw  r26,1         ;2 cycles
    brne  __long_delay0 ;2 cycles
	RET
; .FEND
__lcd_init_write_G100:
; .FSTART __lcd_init_write_G100
	ST   -Y,R26
    cbi  __lcd_port,__lcd_rd 	  ;RD=0
    in    r26,__lcd_direction
    ori   r26,0xf7                ;set as output
    out   __lcd_direction,r26
    in    r27,__lcd_port
    andi  r27,0xf
    ld    r26,y
	CALL __lcd_write_nibble_G100
    sbi   __lcd_port,__lcd_rd     ;RD=1
	RJMP _0x20A0004
; .FEND
_lcd_init:
; .FSTART _lcd_init
	ST   -Y,R26
    cbi   __lcd_port,__lcd_enable ;EN=0
    cbi   __lcd_port,__lcd_rs     ;RS=0
	LD   R30,Y
	STS  __lcd_maxx,R30
	SUBI R30,-LOW(128)
	__PUTB1MN __base_y_G100,2
	LD   R30,Y
	SUBI R30,-LOW(192)
	__PUTB1MN __base_y_G100,3
	CALL SUBOPT_0x3
	CALL SUBOPT_0x3
	CALL SUBOPT_0x3
	RCALL __long_delay_G100
	LDI  R26,LOW(32)
	RCALL __lcd_init_write_G100
	RCALL __long_delay_G100
	LDI  R26,LOW(40)
	CALL SUBOPT_0x4
	LDI  R26,LOW(4)
	CALL SUBOPT_0x4
	LDI  R26,LOW(133)
	CALL SUBOPT_0x4
    in    r26,__lcd_direction
    andi  r26,0xf                 ;set as input
    out   __lcd_direction,r26
    sbi   __lcd_port,__lcd_rd     ;RD=1
	CALL _lcd_read_byte0_G100
	CPI  R30,LOW(0x5)
	BREQ _0x200000B
	LDI  R30,LOW(0)
	RJMP _0x20A0004
_0x200000B:
	CALL __lcd_ready
	LDI  R26,LOW(6)
	CALL __lcd_write_data
	CALL _lcd_clear
	LDI  R30,LOW(1)
_0x20A0004:
	ADIW R28,1
	RET
; .FEND

	.CSEG
_itoa:
; .FSTART _itoa
	ST   -Y,R27
	ST   -Y,R26
    ld   r26,y+
    ld   r27,y+
    ld   r30,y+
    ld   r31,y+
    adiw r30,0
    brpl __itoa0
    com  r30
    com  r31
    adiw r30,1
    ldi  r22,'-'
    st   x+,r22
__itoa0:
    clt
    ldi  r24,low(10000)
    ldi  r25,high(10000)
    rcall __itoa1
    ldi  r24,low(1000)
    ldi  r25,high(1000)
    rcall __itoa1
    ldi  r24,100
    clr  r25
    rcall __itoa1
    ldi  r24,10
    rcall __itoa1
    mov  r22,r30
    rcall __itoa5
    clr  r22
    st   x,r22
    ret

__itoa1:
    clr	 r22
__itoa2:
    cp   r30,r24
    cpc  r31,r25
    brlo __itoa3
    inc  r22
    sub  r30,r24
    sbc  r31,r25
    brne __itoa2
__itoa3:
    tst  r22
    brne __itoa4
    brts __itoa5
    ret
__itoa4:
    set
__itoa5:
    subi r22,-0x30
    st   x+,r22
    ret
; .FEND
_ftoa:
; .FSTART _ftoa
	ST   -Y,R27
	ST   -Y,R26
	SBIW R28,4
	LDI  R30,LOW(0)
	ST   Y,R30
	STD  Y+1,R30
	STD  Y+2,R30
	LDI  R30,LOW(63)
	STD  Y+3,R30
	ST   -Y,R17
	ST   -Y,R16
	LDD  R30,Y+11
	LDD  R31,Y+11+1
	CPI  R30,LOW(0xFFFF)
	LDI  R26,HIGH(0xFFFF)
	CPC  R31,R26
	BRNE _0x202000D
	CALL SUBOPT_0x5
	__POINTW2FN _0x2020000,0
	CALL _strcpyf
	RJMP _0x20A0003
_0x202000D:
	CPI  R30,LOW(0x7FFF)
	LDI  R26,HIGH(0x7FFF)
	CPC  R31,R26
	BRNE _0x202000C
	CALL SUBOPT_0x5
	__POINTW2FN _0x2020000,1
	CALL _strcpyf
	RJMP _0x20A0003
_0x202000C:
	LDD  R26,Y+12
	TST  R26
	BRPL _0x202000F
	__GETD1S 9
	CALL __ANEGF1
	CALL SUBOPT_0x6
	CALL SUBOPT_0x7
	LDI  R30,LOW(45)
	ST   X,R30
_0x202000F:
	LDD  R26,Y+8
	CPI  R26,LOW(0x7)
	BRLO _0x2020010
	LDI  R30,LOW(6)
	STD  Y+8,R30
_0x2020010:
	LDD  R17,Y+8
_0x2020011:
	MOV  R30,R17
	SUBI R17,1
	CPI  R30,0
	BREQ _0x2020013
	CALL SUBOPT_0x8
	CALL SUBOPT_0x9
	CALL SUBOPT_0xA
	RJMP _0x2020011
_0x2020013:
	CALL SUBOPT_0xB
	CALL __ADDF12
	CALL SUBOPT_0x6
	LDI  R17,LOW(0)
	__GETD1N 0x3F800000
	CALL SUBOPT_0xA
_0x2020014:
	CALL SUBOPT_0xB
	CALL __CMPF12
	BRLO _0x2020016
	CALL SUBOPT_0x8
	CALL SUBOPT_0xC
	CALL SUBOPT_0xA
	SUBI R17,-LOW(1)
	CPI  R17,39
	BRLO _0x2020017
	CALL SUBOPT_0x5
	__POINTW2FN _0x2020000,5
	CALL _strcpyf
	RJMP _0x20A0003
_0x2020017:
	RJMP _0x2020014
_0x2020016:
	CPI  R17,0
	BRNE _0x2020018
	CALL SUBOPT_0x7
	LDI  R30,LOW(48)
	ST   X,R30
	RJMP _0x2020019
_0x2020018:
_0x202001A:
	MOV  R30,R17
	SUBI R17,1
	CPI  R30,0
	BREQ _0x202001C
	CALL SUBOPT_0x8
	CALL SUBOPT_0x9
	__GETD2N 0x3F000000
	CALL __ADDF12
	MOVW R26,R30
	MOVW R24,R22
	CALL _floor
	CALL SUBOPT_0xA
	CALL SUBOPT_0xB
	CALL __DIVF21
	CALL __CFD1U
	MOV  R16,R30
	CALL SUBOPT_0x7
	MOV  R30,R16
	SUBI R30,-LOW(48)
	ST   X,R30
	MOV  R30,R16
	LDI  R31,0
	CALL SUBOPT_0x8
	CALL SUBOPT_0x0
	CALL __MULF12
	CALL SUBOPT_0xD
	CALL SUBOPT_0xE
	RJMP _0x202001A
_0x202001C:
_0x2020019:
	LDD  R30,Y+8
	CPI  R30,0
	BREQ _0x20A0002
	CALL SUBOPT_0x7
	LDI  R30,LOW(46)
	ST   X,R30
_0x202001E:
	LDD  R30,Y+8
	SUBI R30,LOW(1)
	STD  Y+8,R30
	SUBI R30,-LOW(1)
	BREQ _0x2020020
	CALL SUBOPT_0xD
	CALL SUBOPT_0xC
	CALL SUBOPT_0x6
	__GETD1S 9
	CALL __CFD1U
	MOV  R16,R30
	CALL SUBOPT_0x7
	MOV  R30,R16
	SUBI R30,-LOW(48)
	ST   X,R30
	MOV  R30,R16
	LDI  R31,0
	CALL SUBOPT_0xD
	CALL SUBOPT_0x0
	CALL SUBOPT_0xE
	RJMP _0x202001E
_0x2020020:
_0x20A0002:
	LDD  R26,Y+6
	LDD  R27,Y+6+1
	LDI  R30,LOW(0)
	ST   X,R30
_0x20A0003:
	LDD  R17,Y+1
	LDD  R16,Y+0
	ADIW R28,13
	RET
; .FEND

	.DSEG

	.CSEG

	.CSEG

	.CSEG
_ftrunc:
; .FSTART _ftrunc
	CALL __PUTPARD2
   ldd  r23,y+3
   ldd  r22,y+2
   ldd  r31,y+1
   ld   r30,y
   bst  r23,7
   lsl  r23
   sbrc r22,7
   sbr  r23,1
   mov  r25,r23
   subi r25,0x7e
   breq __ftrunc0
   brcs __ftrunc0
   cpi  r25,24
   brsh __ftrunc1
   clr  r26
   clr  r27
   clr  r24
__ftrunc2:
   sec
   ror  r24
   ror  r27
   ror  r26
   dec  r25
   brne __ftrunc2
   and  r30,r26
   and  r31,r27
   and  r22,r24
   rjmp __ftrunc1
__ftrunc0:
   clt
   clr  r23
   clr  r30
   clr  r31
   clr  r22
__ftrunc1:
   cbr  r22,0x80
   lsr  r23
   brcc __ftrunc3
   sbr  r22,0x80
__ftrunc3:
   bld  r23,7
   ld   r26,y+
   ld   r27,y+
   ld   r24,y+
   ld   r25,y+
   cp   r30,r26
   cpc  r31,r27
   cpc  r22,r24
   cpc  r23,r25
   bst  r25,7
   ret
; .FEND
_floor:
; .FSTART _floor
	CALL __PUTPARD2
	CALL __GETD2S0
	CALL _ftrunc
	CALL __PUTD1S0
    brne __floor1
__floor0:
	CALL __GETD1S0
	RJMP _0x20A0001
__floor1:
    brtc __floor0
	CALL __GETD1S0
	__GETD2N 0x3F800000
	CALL __SUBF12
_0x20A0001:
	ADIW R28,4
	RET
; .FEND

	.CSEG
_strcpyf:
; .FSTART _strcpyf
	ST   -Y,R27
	ST   -Y,R26
    ld   r30,y+
    ld   r31,y+
    ld   r26,y+
    ld   r27,y+
    movw r24,r26
strcpyf0:
	lpm  r0,z+
    st   x+,r0
    tst  r0
    brne strcpyf0
    movw r30,r24
    ret
; .FEND

	.DSEG
_STEPS:
	.BYTE 0x10
_timer_counter_G000:
	.BYTE 0x2
__base_y_G100:
	.BYTE 0x4
__lcd_x:
	.BYTE 0x1
__lcd_y:
	.BYTE 0x1
__lcd_maxx:
	.BYTE 0x1
__seed_G101:
	.BYTE 0x4

	.CSEG
;OPTIMIZER ADDED SUBROUTINE, CALLED 3 TIMES, CODE SIZE REDUCTION:1 WORDS
SUBOPT_0x0:
	CALL __CWD1
	CALL __CDF1
	RET

;OPTIMIZER ADDED SUBROUTINE, CALLED 3 TIMES, CODE SIZE REDUCTION:7 WORDS
SUBOPT_0x1:
	CALL _lcd_puts
	LDI  R30,LOW(0)
	ST   -Y,R30
	LDI  R26,LOW(1)
	JMP  _lcd_gotoxy

;OPTIMIZER ADDED SUBROUTINE, CALLED 3 TIMES, CODE SIZE REDUCTION:1 WORDS
SUBOPT_0x2:
	LDI  R26,LOW(65535)
	LDI  R27,HIGH(65535)
	CALL __MULW12
	RET

;OPTIMIZER ADDED SUBROUTINE, CALLED 3 TIMES, CODE SIZE REDUCTION:3 WORDS
SUBOPT_0x3:
	CALL __long_delay_G100
	LDI  R26,LOW(48)
	JMP  __lcd_init_write_G100

;OPTIMIZER ADDED SUBROUTINE, CALLED 3 TIMES, CODE SIZE REDUCTION:1 WORDS
SUBOPT_0x4:
	CALL __lcd_write_data
	JMP  __long_delay_G100

;OPTIMIZER ADDED SUBROUTINE, CALLED 3 TIMES, CODE SIZE REDUCTION:1 WORDS
SUBOPT_0x5:
	LDD  R30,Y+6
	LDD  R31,Y+6+1
	ST   -Y,R31
	ST   -Y,R30
	RET

;OPTIMIZER ADDED SUBROUTINE, CALLED 5 TIMES, CODE SIZE REDUCTION:5 WORDS
SUBOPT_0x6:
	__PUTD1S 9
	RET

;OPTIMIZER ADDED SUBROUTINE, CALLED 5 TIMES, CODE SIZE REDUCTION:13 WORDS
SUBOPT_0x7:
	LDD  R26,Y+6
	LDD  R27,Y+6+1
	ADIW R26,1
	STD  Y+6,R26
	STD  Y+6+1,R27
	SBIW R26,1
	RET

;OPTIMIZER ADDED SUBROUTINE, CALLED 4 TIMES, CODE SIZE REDUCTION:3 WORDS
SUBOPT_0x8:
	__GETD2S 2
	RET

;OPTIMIZER ADDED SUBROUTINE, CALLED 2 TIMES, CODE SIZE REDUCTION:1 WORDS
SUBOPT_0x9:
	__GETD1N 0x3DCCCCCD
	CALL __MULF12
	RET

;OPTIMIZER ADDED SUBROUTINE, CALLED 4 TIMES, CODE SIZE REDUCTION:3 WORDS
SUBOPT_0xA:
	__PUTD1S 2
	RET

;OPTIMIZER ADDED SUBROUTINE, CALLED 3 TIMES, CODE SIZE REDUCTION:9 WORDS
SUBOPT_0xB:
	__GETD1S 2
	__GETD2S 9
	RET

;OPTIMIZER ADDED SUBROUTINE, CALLED 2 TIMES, CODE SIZE REDUCTION:1 WORDS
SUBOPT_0xC:
	__GETD1N 0x41200000
	CALL __MULF12
	RET

;OPTIMIZER ADDED SUBROUTINE, CALLED 3 TIMES, CODE SIZE REDUCTION:1 WORDS
SUBOPT_0xD:
	__GETD2S 9
	RET

;OPTIMIZER ADDED SUBROUTINE, CALLED 2 TIMES, CODE SIZE REDUCTION:1 WORDS
SUBOPT_0xE:
	CALL __SWAPD12
	CALL __SUBF12
	RJMP SUBOPT_0x6


	.CSEG
__ANEGF1:
	SBIW R30,0
	SBCI R22,0
	SBCI R23,0
	BREQ __ANEGF10
	SUBI R23,0x80
__ANEGF10:
	RET

__ROUND_REPACK:
	TST  R21
	BRPL __REPACK
	CPI  R21,0x80
	BRNE __ROUND_REPACK0
	SBRS R30,0
	RJMP __REPACK
__ROUND_REPACK0:
	ADIW R30,1
	ADC  R22,R25
	ADC  R23,R25
	BRVS __REPACK1

__REPACK:
	LDI  R21,0x80
	EOR  R21,R23
	BRNE __REPACK0
	PUSH R21
	RJMP __ZERORES
__REPACK0:
	CPI  R21,0xFF
	BREQ __REPACK1
	LSL  R22
	LSL  R0
	ROR  R21
	ROR  R22
	MOV  R23,R21
	RET
__REPACK1:
	PUSH R21
	TST  R0
	BRMI __REPACK2
	RJMP __MAXRES
__REPACK2:
	RJMP __MINRES

__UNPACK:
	LDI  R21,0x80
	MOV  R1,R25
	AND  R1,R21
	LSL  R24
	ROL  R25
	EOR  R25,R21
	LSL  R21
	ROR  R24

__UNPACK1:
	LDI  R21,0x80
	MOV  R0,R23
	AND  R0,R21
	LSL  R22
	ROL  R23
	EOR  R23,R21
	LSL  R21
	ROR  R22
	RET

__CFD1U:
	SET
	RJMP __CFD1U0
__CFD1:
	CLT
__CFD1U0:
	PUSH R21
	RCALL __UNPACK1
	CPI  R23,0x80
	BRLO __CFD10
	CPI  R23,0xFF
	BRCC __CFD10
	RJMP __ZERORES
__CFD10:
	LDI  R21,22
	SUB  R21,R23
	BRPL __CFD11
	NEG  R21
	CPI  R21,8
	BRTC __CFD19
	CPI  R21,9
__CFD19:
	BRLO __CFD17
	SER  R30
	SER  R31
	SER  R22
	LDI  R23,0x7F
	BLD  R23,7
	RJMP __CFD15
__CFD17:
	CLR  R23
	TST  R21
	BREQ __CFD15
__CFD18:
	LSL  R30
	ROL  R31
	ROL  R22
	ROL  R23
	DEC  R21
	BRNE __CFD18
	RJMP __CFD15
__CFD11:
	CLR  R23
__CFD12:
	CPI  R21,8
	BRLO __CFD13
	MOV  R30,R31
	MOV  R31,R22
	MOV  R22,R23
	SUBI R21,8
	RJMP __CFD12
__CFD13:
	TST  R21
	BREQ __CFD15
__CFD14:
	LSR  R23
	ROR  R22
	ROR  R31
	ROR  R30
	DEC  R21
	BRNE __CFD14
__CFD15:
	TST  R0
	BRPL __CFD16
	RCALL __ANEGD1
__CFD16:
	POP  R21
	RET

__CDF1U:
	SET
	RJMP __CDF1U0
__CDF1:
	CLT
__CDF1U0:
	SBIW R30,0
	SBCI R22,0
	SBCI R23,0
	BREQ __CDF10
	CLR  R0
	BRTS __CDF11
	TST  R23
	BRPL __CDF11
	COM  R0
	RCALL __ANEGD1
__CDF11:
	MOV  R1,R23
	LDI  R23,30
	TST  R1
__CDF12:
	BRMI __CDF13
	DEC  R23
	LSL  R30
	ROL  R31
	ROL  R22
	ROL  R1
	RJMP __CDF12
__CDF13:
	MOV  R30,R31
	MOV  R31,R22
	MOV  R22,R1
	PUSH R21
	RCALL __REPACK
	POP  R21
__CDF10:
	RET

__SWAPACC:
	PUSH R20
	MOVW R20,R30
	MOVW R30,R26
	MOVW R26,R20
	MOVW R20,R22
	MOVW R22,R24
	MOVW R24,R20
	MOV  R20,R0
	MOV  R0,R1
	MOV  R1,R20
	POP  R20
	RET

__UADD12:
	ADD  R30,R26
	ADC  R31,R27
	ADC  R22,R24
	RET

__NEGMAN1:
	COM  R30
	COM  R31
	COM  R22
	SUBI R30,-1
	SBCI R31,-1
	SBCI R22,-1
	RET

__SUBF12:
	PUSH R21
	RCALL __UNPACK
	CPI  R25,0x80
	BREQ __ADDF129
	LDI  R21,0x80
	EOR  R1,R21

	RJMP __ADDF120

__ADDF12:
	PUSH R21
	RCALL __UNPACK
	CPI  R25,0x80
	BREQ __ADDF129

__ADDF120:
	CPI  R23,0x80
	BREQ __ADDF128
__ADDF121:
	MOV  R21,R23
	SUB  R21,R25
	BRVS __ADDF1211
	BRPL __ADDF122
	RCALL __SWAPACC
	RJMP __ADDF121
__ADDF122:
	CPI  R21,24
	BRLO __ADDF123
	CLR  R26
	CLR  R27
	CLR  R24
__ADDF123:
	CPI  R21,8
	BRLO __ADDF124
	MOV  R26,R27
	MOV  R27,R24
	CLR  R24
	SUBI R21,8
	RJMP __ADDF123
__ADDF124:
	TST  R21
	BREQ __ADDF126
__ADDF125:
	LSR  R24
	ROR  R27
	ROR  R26
	DEC  R21
	BRNE __ADDF125
__ADDF126:
	MOV  R21,R0
	EOR  R21,R1
	BRMI __ADDF127
	RCALL __UADD12
	BRCC __ADDF129
	ROR  R22
	ROR  R31
	ROR  R30
	INC  R23
	BRVC __ADDF129
	RJMP __MAXRES
__ADDF128:
	RCALL __SWAPACC
__ADDF129:
	RCALL __REPACK
	POP  R21
	RET
__ADDF1211:
	BRCC __ADDF128
	RJMP __ADDF129
__ADDF127:
	SUB  R30,R26
	SBC  R31,R27
	SBC  R22,R24
	BREQ __ZERORES
	BRCC __ADDF1210
	COM  R0
	RCALL __NEGMAN1
__ADDF1210:
	TST  R22
	BRMI __ADDF129
	LSL  R30
	ROL  R31
	ROL  R22
	DEC  R23
	BRVC __ADDF1210

__ZERORES:
	CLR  R30
	CLR  R31
	CLR  R22
	CLR  R23
	POP  R21
	RET

__MINRES:
	SER  R30
	SER  R31
	LDI  R22,0x7F
	SER  R23
	POP  R21
	RET

__MAXRES:
	SER  R30
	SER  R31
	LDI  R22,0x7F
	LDI  R23,0x7F
	POP  R21
	RET

__MULF12:
	PUSH R21
	RCALL __UNPACK
	CPI  R23,0x80
	BREQ __ZERORES
	CPI  R25,0x80
	BREQ __ZERORES
	EOR  R0,R1
	SEC
	ADC  R23,R25
	BRVC __MULF124
	BRLT __ZERORES
__MULF125:
	TST  R0
	BRMI __MINRES
	RJMP __MAXRES
__MULF124:
	PUSH R0
	PUSH R17
	PUSH R18
	PUSH R19
	PUSH R20
	CLR  R17
	CLR  R18
	CLR  R25
	MUL  R22,R24
	MOVW R20,R0
	MUL  R24,R31
	MOV  R19,R0
	ADD  R20,R1
	ADC  R21,R25
	MUL  R22,R27
	ADD  R19,R0
	ADC  R20,R1
	ADC  R21,R25
	MUL  R24,R30
	RCALL __MULF126
	MUL  R27,R31
	RCALL __MULF126
	MUL  R22,R26
	RCALL __MULF126
	MUL  R27,R30
	RCALL __MULF127
	MUL  R26,R31
	RCALL __MULF127
	MUL  R26,R30
	ADD  R17,R1
	ADC  R18,R25
	ADC  R19,R25
	ADC  R20,R25
	ADC  R21,R25
	MOV  R30,R19
	MOV  R31,R20
	MOV  R22,R21
	MOV  R21,R18
	POP  R20
	POP  R19
	POP  R18
	POP  R17
	POP  R0
	TST  R22
	BRMI __MULF122
	LSL  R21
	ROL  R30
	ROL  R31
	ROL  R22
	RJMP __MULF123
__MULF122:
	INC  R23
	BRVS __MULF125
__MULF123:
	RCALL __ROUND_REPACK
	POP  R21
	RET

__MULF127:
	ADD  R17,R0
	ADC  R18,R1
	ADC  R19,R25
	RJMP __MULF128
__MULF126:
	ADD  R18,R0
	ADC  R19,R1
__MULF128:
	ADC  R20,R25
	ADC  R21,R25
	RET

__DIVF21:
	PUSH R21
	RCALL __UNPACK
	CPI  R23,0x80
	BRNE __DIVF210
	TST  R1
__DIVF211:
	BRPL __DIVF219
	RJMP __MINRES
__DIVF219:
	RJMP __MAXRES
__DIVF210:
	CPI  R25,0x80
	BRNE __DIVF218
__DIVF217:
	RJMP __ZERORES
__DIVF218:
	EOR  R0,R1
	SEC
	SBC  R25,R23
	BRVC __DIVF216
	BRLT __DIVF217
	TST  R0
	RJMP __DIVF211
__DIVF216:
	MOV  R23,R25
	PUSH R17
	PUSH R18
	PUSH R19
	PUSH R20
	CLR  R1
	CLR  R17
	CLR  R18
	CLR  R19
	CLR  R20
	CLR  R21
	LDI  R25,32
__DIVF212:
	CP   R26,R30
	CPC  R27,R31
	CPC  R24,R22
	CPC  R20,R17
	BRLO __DIVF213
	SUB  R26,R30
	SBC  R27,R31
	SBC  R24,R22
	SBC  R20,R17
	SEC
	RJMP __DIVF214
__DIVF213:
	CLC
__DIVF214:
	ROL  R21
	ROL  R18
	ROL  R19
	ROL  R1
	ROL  R26
	ROL  R27
	ROL  R24
	ROL  R20
	DEC  R25
	BRNE __DIVF212
	MOVW R30,R18
	MOV  R22,R1
	POP  R20
	POP  R19
	POP  R18
	POP  R17
	TST  R22
	BRMI __DIVF215
	LSL  R21
	ROL  R30
	ROL  R31
	ROL  R22
	DEC  R23
	BRVS __DIVF217
__DIVF215:
	RCALL __ROUND_REPACK
	POP  R21
	RET

__CMPF12:
	TST  R25
	BRMI __CMPF120
	TST  R23
	BRMI __CMPF121
	CP   R25,R23
	BRLO __CMPF122
	BRNE __CMPF121
	CP   R26,R30
	CPC  R27,R31
	CPC  R24,R22
	BRLO __CMPF122
	BREQ __CMPF123
__CMPF121:
	CLZ
	CLC
	RET
__CMPF122:
	CLZ
	SEC
	RET
__CMPF123:
	SEZ
	CLC
	RET
__CMPF120:
	TST  R23
	BRPL __CMPF122
	CP   R25,R23
	BRLO __CMPF121
	BRNE __CMPF122
	CP   R30,R26
	CPC  R31,R27
	CPC  R22,R24
	BRLO __CMPF122
	BREQ __CMPF123
	RJMP __CMPF121

__ANEGW1:
	NEG  R31
	NEG  R30
	SBCI R31,0
	RET

__ANEGD1:
	COM  R31
	COM  R22
	COM  R23
	NEG  R30
	SBCI R31,-1
	SBCI R22,-1
	SBCI R23,-1
	RET

__CWD1:
	MOV  R22,R31
	ADD  R22,R22
	SBC  R22,R22
	MOV  R23,R22
	RET

__MULW12U:
	MUL  R31,R26
	MOV  R31,R0
	MUL  R30,R27
	ADD  R31,R0
	MUL  R30,R26
	MOV  R30,R0
	ADD  R31,R1
	RET

__MULW12:
	RCALL __CHKSIGNW
	RCALL __MULW12U
	BRTC __MULW121
	RCALL __ANEGW1
__MULW121:
	RET

__CHKSIGNW:
	CLT
	SBRS R31,7
	RJMP __CHKSW1
	RCALL __ANEGW1
	SET
__CHKSW1:
	SBRS R27,7
	RJMP __CHKSW2
	COM  R26
	COM  R27
	ADIW R26,1
	BLD  R0,0
	INC  R0
	BST  R0,0
__CHKSW2:
	RET

__GETD1S0:
	LD   R30,Y
	LDD  R31,Y+1
	LDD  R22,Y+2
	LDD  R23,Y+3
	RET

__GETD2S0:
	LD   R26,Y
	LDD  R27,Y+1
	LDD  R24,Y+2
	LDD  R25,Y+3
	RET

__PUTD1S0:
	ST   Y,R30
	STD  Y+1,R31
	STD  Y+2,R22
	STD  Y+3,R23
	RET

__PUTPARD1:
	ST   -Y,R23
	ST   -Y,R22
	ST   -Y,R31
	ST   -Y,R30
	RET

__PUTPARD2:
	ST   -Y,R25
	ST   -Y,R24
	ST   -Y,R27
	ST   -Y,R26
	RET

__SWAPD12:
	MOV  R1,R24
	MOV  R24,R22
	MOV  R22,R1
	MOV  R1,R25
	MOV  R25,R23
	MOV  R23,R1

__SWAPW12:
	MOV  R1,R27
	MOV  R27,R31
	MOV  R31,R1

__SWAPB12:
	MOV  R1,R26
	MOV  R26,R30
	MOV  R30,R1
	RET

;END OF CODE MARKER
__END_OF_CODE:
